target datalayout = "e-m:e-p270:32:32-p271:32:32-p272:64:64-i64:64-i128:128-f80:128-n8:16:32:64-S128"
target triple = "x86_64-pc-linux-gnu"

%struct._per_sequence_t = type { ptr, i32, i32, ptr }

@ett_ranap_ProtocolIE_ContainerList = internal global i32 0, align 4
@.str.2473 = private unnamed_addr constant [25 x i8] c"ProtocolIE-ContainerList\00", align 1
@.str.2474 = private unnamed_addr constant [11 x i8] c"lowerBound\00", align 1
@.str.2475 = private unnamed_addr constant [11 x i8] c"upperBound\00", align 1
@ProtocolIE_ContainerList_sequence_of = internal constant [1 x %struct._per_sequence_t] [%struct._per_sequence_t { ptr @hf_ranap_ProtocolIE_ContainerList_item, i32 0, i32 0, ptr @dissect_ranap_ProtocolIE_Container }], align 16

; Function Attrs: null_pointer_is_valid sspstrong uwtable
define internal i32 @dissect_ranap_ProtocolIE_ContainerList(ptr noundef %0, i32 noundef %1, ptr noundef %2, ptr noundef %3, i32 noundef %4) #0 {
  %6 = alloca ptr, align 8
  %7 = alloca i32, align 4
  %8 = alloca ptr, align 8
  %9 = alloca ptr, align 8
  %10 = alloca i32, align 4
  store ptr %0, ptr %6, align 8
  store i32 %1, ptr %7, align 4
  store ptr %2, ptr %8, align 8
  store ptr %3, ptr %9, align 8
  store i32 %4, ptr %10, align 4
  %11 = load ptr, ptr %8, align 8
  call void @asn1_stack_frame_check(ptr noundef %11, ptr noundef @.str.2473, ptr noundef @dissect_ranap_ProtocolIE_ContainerList.ProtocolIE_ContainerList_pars)
  %12 = load ptr, ptr %6, align 8
  %13 = load i32, ptr %7, align 4
  %14 = load ptr, ptr %8, align 8
  %15 = load ptr, ptr %9, align 8
  %16 = load i32, ptr %10, align 4
  %17 = load i32, ptr @ett_ranap_ProtocolIE_ContainerList, align 4
  %18 = load ptr, ptr %8, align 8
  %19 = call i32 @asn1_param_get_integer(ptr noundef %18, ptr noundef @.str.2474)
  %20 = load ptr, ptr %8, align 8
  %21 = call i32 @asn1_param_get_integer(ptr noundef %20, ptr noundef @.str.2475)
  %22 = call i32 @dissect_per_constrained_sequence_of(ptr noundef %12, i32 noundef %13, ptr noundef %14, ptr noundef %15, i32 noundef %16, i32 noundef %17, ptr noundef @ProtocolIE_ContainerList_sequence_of, i32 noundef %19, i32 noundef %21, i1 noundef zeroext false)
  store i32 %22, ptr %7, align 4
  %23 = load i32, ptr %7, align 4
  ret i32 %23
}

; Function Attrs: null_pointer_is_valid sspstrong uwtable
define internal i32 @dissect_ranap_RAB_IE_ContainerList(ptr noundef %0, i32 noundef %1, ptr noundef %2, ptr noundef %3, i32 noundef %4) #0 {
  %6 = alloca ptr, align 8
  %7 = alloca i32, align 4
  %8 = alloca ptr, align 8
  %9 = alloca ptr, align 8
  %10 = alloca i32, align 4
  store ptr %0, ptr %6, align 8
  store i32 %1, ptr %7, align 4
  store ptr %2, ptr %8, align 8
  store ptr %3, ptr %9, align 8
  store i32 %4, ptr %10, align 4
  %11 = load ptr, ptr %8, align 8
  call void @asn1_stack_frame_push(ptr noundef %11, ptr noundef @.str.2473)
  %12 = load ptr, ptr %8, align 8
  call void @asn1_param_push_integer(ptr noundef %12, i32 noundef 1)
  %13 = load ptr, ptr %8, align 8
  call void @asn1_param_push_integer(ptr noundef %13, i32 noundef 256)
  %14 = load ptr, ptr %6, align 8
  %15 = load i32, ptr %7, align 4
  %16 = load ptr, ptr %8, align 8
  %17 = load ptr, ptr %9, align 8
  %18 = load i32, ptr %10, align 4
  %19 = call i32 @dissect_ranap_ProtocolIE_ContainerList(ptr noundef %14, i32 noundef %15, ptr noundef %16, ptr noundef %17, i32 noundef %18)
  store i32 %19, ptr %7, align 4
  %20 = load ptr, ptr %8, align 8
  call void @asn1_stack_frame_pop(ptr noundef %20, ptr noundef @.str.2473)
  %21 = load i32, ptr %7, align 4
  ret i32 %21
}

; Function Attrs: null_pointer_is_valid sspstrong uwtable
define internal i32 @dissect_ranap_RAB_ToBeReleasedList_EnhancedRelocCompleteRes(ptr noundef %0, i32 noundef %1, ptr noundef %2, ptr noundef %3, i32 noundef %4) #0 {
  %6 = alloca ptr, align 8
  %7 = alloca i32, align 4
  %8 = alloca ptr, align 8
  %9 = alloca ptr, align 8
  %10 = alloca i32, align 4
  store ptr %0, ptr %6, align 8
  store i32 %1, ptr %7, align 4
  store ptr %2, ptr %8, align 8
  store ptr %3, ptr %9, align 8
  store i32 %4, ptr %10, align 4
  %11 = load ptr, ptr %6, align 8
  %12 = load i32, ptr %7, align 4
  %13 = load ptr, ptr %8, align 8
  %14 = load ptr, ptr %9, align 8
  %15 = load i32, ptr %10, align 4
  %16 = call i32 @dissect_ranap_RAB_IE_ContainerList(ptr noundef %11, i32 noundef %12, ptr noundef %13, ptr noundef %14, i32 noundef %15)
  store i32 %16, ptr %7, align 4
  %17 = load i32, ptr %7, align 4
  ret i32 %17
}