; Function Attrs: null_pointer_is_valid sspstrong uwtable
define internal i32 @dissect_ranap_RAB_ToBeReleasedList_EnhancedRelocCompleteRes(ptr noundef %0, i32 noundef %1, ptr noundef %2, ptr noundef %3, i32 noundef %4) #0 {
  tail call void @asn1_stack_frame_push(ptr noundef %2, ptr noundef nonnull @.str.2473)
  tail call void @asn1_param_push_integer(ptr noundef %2, i32 noundef 1)
  tail call void @asn1_param_push_integer(ptr noundef %2, i32 noundef 256)
  tail call void @asn1_stack_frame_check(ptr noundef %2, ptr noundef nonnull @.str.2473, ptr noundef nonnull @dissect_ranap_ProtocolIE_ContainerList.ProtocolIE_ContainerList_pars)
  %6 = load i32, ptr @ett_ranap_ProtocolIE_ContainerList, align 4
  %7 = tail call i32 @asn1_param_get_integer(ptr noundef %2, ptr noundef nonnull @.str.2474)
  %8 = tail call i32 @asn1_param_get_integer(ptr noundef %2, ptr noundef nonnull @.str.2475)
  %9 = tail call i32 @dissect_per_constrained_sequence_of(ptr noundef %0, i32 noundef %1, ptr noundef %2, ptr noundef %3, i32 noundef %4, i32 noundef %6, ptr noundef nonnull @ProtocolIE_ContainerList_sequence_of, i32 noundef %7, i32 noundef %8, i1 noundef zeroext false)
  tail call void @asn1_stack_frame_pop(ptr noundef %2, ptr noundef nonnull @.str.2473)
  ret i32 %9
}